; Function Attrs: mustprogress nofree norecurse nosync nounwind willreturn memory(none) uwtable
define noundef signext i8 @_ZN8facebook5velox4type6Parser17yy_lr_goto_state_Eai(i8 noundef signext %yystate, i32 noundef %yysym) local_unnamed_addr #7 align 2 {
entry:
  %sub = add nsw i32 %yysym, -15
  %idxprom = sext i32 %sub to i64
  %arrayidx = getelementptr inbounds [0 x i8], ptr @_ZN8facebook5velox4type6Parser8yypgoto_E, i64 0, i64 %idxprom
  %0 = load i8, ptr %arrayidx, align 1
  %conv = sext i8 %0 to i32
  %conv1 = sext i8 %yystate to i32
  %add = add nsw i32 %conv, %conv1
  %or.cond = icmp ult i32 %add, 92
  br i1 %or.cond, label %land.lhs.true3, label %if.else

land.lhs.true3:                                   ; preds = %entry
  %idxprom4 = zext nneg i32 %add to i64
  %arrayidx5 = getelementptr inbounds [0 x i8], ptr @_ZN8facebook5velox4type6Parser8yycheck_E, i64 0, i64 %idxprom4
  %1 = load i8, ptr %arrayidx5, align 1
  %cmp8 = icmp eq i8 %1, %yystate
  br i1 %cmp8, label %if.then, label %if.else

if.then:                                          ; preds = %land.lhs.true3
  %arrayidx10 = getelementptr inbounds [0 x i8], ptr @_ZN8facebook5velox4type6Parser8yytable_E, i64 0, i64 %idxprom4
  br label %return

if.else:                                          ; preds = %land.lhs.true3, %entry
  %arrayidx13 = getelementptr inbounds [0 x i8], ptr @_ZN8facebook5velox4type6Parser10yydefgoto_E, i64 0, i64 %idxprom
  br label %return

return:                                           ; preds = %if.else, %if.then
  %retval.0.in = phi ptr [ %arrayidx10, %if.then ], [ %arrayidx13, %if.else ]
  %retval.0 = load i8, ptr %retval.0.in, align 1
  ret i8 %retval.0
}